target datalayout = "e-m:e-p270:32:32-p271:32:32-p272:64:64-i64:64-i128:128-f80:128-n8:16:32:64-S128"
target triple = "x86_64-pc-linux-gnu"

%struct.H5O_common_cache_ud_t = type { ptr, i32, i32, ptr, i64 }
%struct.H5O_t = type { %struct.H5C_cache_entry_t, i64, i64, i8, i64, i8, i32, i8, i8, i64, i64, i64, i64, i32, i32, i64, i64, ptr, i64, i64, i64, i64, ptr, i8, ptr }
%struct.H5C_cache_entry_t = type { ptr, i64, i64, ptr, i8, ptr, i8, i8, i8, i8, i32, i8, i8, i8, i8, i8, i32, ptr, i32, i32, i32, i32, i32, i8, i8, ptr, ptr, ptr, ptr, ptr, ptr, i8, i32, i8, i64, ptr, i64, i64, i32, i8, i32, i32, i8, ptr, ptr, ptr }
%struct.H5O_chk_cache_ud_t = type { i8, ptr, i32, i64, %struct.H5O_common_cache_ud_t }

@H5O_init_g = external global i8, align 1
@H5_libterm_g = external global i8, align 1
@.str.3 = private unnamed_addr constant [102 x i8] c"generated/home/dtcxzyw/WorkSpace/Projects/compilers/llvm-opt-benchmark/bench/hdf5/hdf5/src/H5Ocache.c\00", align 1
@H5E_OHDR_g = external global i64, align 8
@H5E_CANTGET_g = external global i64, align 8
@.str.16 = private unnamed_addr constant [20 x i8] c"can't get checksums\00", align 1
@__func__.H5O__cache_chk_verify_chksum = private unnamed_addr constant [29 x i8] c"H5O__cache_chk_verify_chksum\00", align 1

; Function Attrs: nounwind uwtable
define internal i32 @H5O__cache_chk_verify_chksum(ptr noundef %0, i64 noundef %1, ptr noundef %2) #0 {
  %4 = alloca i32, align 4
  %5 = alloca ptr, align 8
  %6 = alloca i64, align 8
  %7 = alloca ptr, align 8
  %8 = alloca ptr, align 8
  %9 = alloca ptr, align 8
  %10 = alloca i32, align 4
  %11 = alloca i8, align 1
  %12 = alloca i32, align 4
  %13 = alloca i32, align 4
  %14 = alloca i32, align 4
  store ptr %0, ptr %5, align 8, !tbaa !3
  store i64 %1, ptr %6, align 8, !tbaa !13
  store ptr %2, ptr %7, align 8, !tbaa !3
  call void @llvm.lifetime.start.p0(i64 8, ptr %8) #7
  %15 = load ptr, ptr %5, align 8, !tbaa !3
  store ptr %15, ptr %8, align 8, !tbaa !39
  call void @llvm.lifetime.start.p0(i64 8, ptr %9) #7
  %16 = load ptr, ptr %7, align 8, !tbaa !3
  store ptr %16, ptr %9, align 8, !tbaa !74
  call void @llvm.lifetime.start.p0(i64 4, ptr %10) #7
  store i32 1, ptr %10, align 4, !tbaa !17
  call void @llvm.lifetime.start.p0(i64 1, ptr %11) #7
  store i8 0, ptr %11, align 1, !tbaa !9
  %17 = load i8, ptr @H5O_init_g, align 1, !tbaa !9, !range !11, !noundef !12
  %18 = trunc i8 %17 to i1
  br i1 %18, label %23, label %19

19:                                               ; preds = %3
  %20 = load i8, ptr @H5_libterm_g, align 1, !tbaa !9, !range !11, !noundef !12
  %21 = trunc i8 %20 to i1
  %22 = xor i1 %21, true
  br label %23

23:                                               ; preds = %19, %3
  %24 = phi i1 [ true, %3 ], [ %22, %19 ]
  %25 = xor i1 %24, true
  %26 = xor i1 %25, true
  %27 = zext i1 %26 to i32
  %28 = sext i32 %27 to i64
  %29 = call i64 @llvm.expect.i64(i64 %28, i64 1)
  %30 = icmp ne i64 %29, 0
  br i1 %30, label %31, label %74

31:                                               ; preds = %23
  %32 = load ptr, ptr %9, align 8, !tbaa !74
  %33 = getelementptr inbounds nuw %struct.H5O_chk_cache_ud_t, ptr %32, i32 0, i32 1
  %34 = load ptr, ptr %33, align 8, !tbaa !78
  %35 = getelementptr inbounds nuw %struct.H5O_t, ptr %34, i32 0, i32 7
  %36 = load i8, ptr %35, align 8, !tbaa !26
  %37 = zext i8 %36 to i32
  %38 = icmp ne i32 %37, 1
  br i1 %38, label %39, label %72

39:                                               ; preds = %31
  call void @llvm.lifetime.start.p0(i64 4, ptr %12) #7
  call void @llvm.lifetime.start.p0(i64 4, ptr %13) #7
  %40 = load ptr, ptr %8, align 8, !tbaa !39
  %41 = load i64, ptr %6, align 8, !tbaa !13
  %42 = call i32 @H5F_get_checksums(ptr noundef %40, i64 noundef %41, ptr noundef %12, ptr noundef %13)
  %43 = icmp slt i32 %42, 0
  br i1 %43, label %44, label %63

44:                                               ; preds = %39
  br label %45

45:                                               ; preds = %44
  br label %46

46:                                               ; preds = %45
  br label %47

47:                                               ; preds = %46
  %48 = load i64, ptr @H5E_OHDR_g, align 8, !tbaa !13
  %49 = load i64, ptr @H5E_CANTGET_g, align 8, !tbaa !13
  %50 = call i32 (ptr, ptr, i32, i64, i64, ptr, ...) @H5E_printf_stack(ptr noundef @.str.3, ptr noundef @__func__.H5O__cache_chk_verify_chksum, i32 noundef 640, i64 noundef %48, i64 noundef %49, ptr noundef @.str.16)
  br label %51

51:                                               ; preds = %47
  br label %52

52:                                               ; preds = %51
  store i8 1, ptr %11, align 1, !tbaa !9
  %53 = load i8, ptr %11, align 1, !tbaa !9, !range !11, !noundef !12
  %54 = trunc i8 %53 to i1
  %55 = zext i1 %54 to i8
  store i8 %55, ptr %11, align 1, !tbaa !9
  br label %56

56:                                               ; preds = %52
  br label %57

57:                                               ; preds = %56
  br label %58

58:                                               ; preds = %57
  store i32 -1, ptr %10, align 4, !tbaa !17
  store i32 10, ptr %14, align 4
  br label %69

59:                                               ; No predecessors!
  br label %60

60:                                               ; preds = %59
  br label %61

61:                                               ; preds = %60
  br label %62

62:                                               ; preds = %61
  br label %63

63:                                               ; preds = %62, %39
  %64 = load i32, ptr %12, align 4, !tbaa !17
  %65 = load i32, ptr %13, align 4, !tbaa !17
  %66 = icmp ne i32 %64, %65
  br i1 %66, label %67, label %68

67:                                               ; preds = %63
  store i32 0, ptr %10, align 4, !tbaa !17
  br label %68

68:                                               ; preds = %67, %63
  store i32 0, ptr %14, align 4
  br label %69

69:                                               ; preds = %58, %68
  call void @llvm.lifetime.end.p0(i64 4, ptr %13) #7
  call void @llvm.lifetime.end.p0(i64 4, ptr %12) #7
  %70 = load i32, ptr %14, align 4
  switch i32 %70, label %76 [
    i32 0, label %71
    i32 10, label %73
  ]

71:                                               ; preds = %69
  br label %72

72:                                               ; preds = %71, %31
  br label %73

73:                                               ; preds = %72, %69
  br label %74

74:                                               ; preds = %73, %23
  %75 = load i32, ptr %10, align 4, !tbaa !17
  store i32 %75, ptr %4, align 4
  store i32 1, ptr %14, align 4
  br label %76

76:                                               ; preds = %74, %69
  call void @llvm.lifetime.end.p0(i64 1, ptr %11) #7
  call void @llvm.lifetime.end.p0(i64 4, ptr %10) #7
  call void @llvm.lifetime.end.p0(i64 8, ptr %9) #7
  call void @llvm.lifetime.end.p0(i64 8, ptr %8) #7
  %77 = load i32, ptr %4, align 4
  ret i32 %77
}