; Function Attrs: nounwind uwtable
define internal range(i32 -1, 2) i32 @H5O__cache_chk_verify_chksum(ptr noundef %0, i64 noundef %1, ptr noundef readonly captures(none) %2) #1 {
  %4 = alloca i32, align 4
  %5 = alloca i32, align 4
  %6 = load i8, ptr @H5O_init_g, align 1, !tbaa !3, !range !7, !noundef !8
  %7 = trunc nuw i8 %6 to i1
  %8 = load i8, ptr @H5_libterm_g, align 1, !range !7
  %9 = trunc nuw i8 %8 to i1
  %10 = xor i1 %9, true
  %11 = select i1 %7, i1 true, i1 %10
  br i1 %11, label %12, label %28, !prof !9

12:                                               ; preds = %3
  %13 = getelementptr inbounds nuw i8, ptr %2, i64 8
  %14 = load ptr, ptr %13, align 8, !tbaa !67
  %15 = getelementptr inbounds nuw i8, ptr %14, i64 288
  %16 = load i8, ptr %15, align 8, !tbaa !21
  %.not = icmp eq i8 %16, 1
  br i1 %.not, label %28, label %17

17:                                               ; preds = %12
  call void @llvm.lifetime.start.p0(i64 4, ptr nonnull %4) #9
  call void @llvm.lifetime.start.p0(i64 4, ptr nonnull %5) #9
  %18 = call i32 @H5F_get_checksums(ptr noundef %0, i64 noundef %1, ptr noundef nonnull %4, ptr noundef nonnull %5) #9
  %19 = icmp slt i32 %18, 0
  br i1 %19, label %20, label %24

20:                                               ; preds = %17
  %21 = load i64, ptr @H5E_OHDR_g, align 8, !tbaa !10
  %22 = load i64, ptr @H5E_CANTGET_g, align 8, !tbaa !10
  %23 = call i32 (ptr, ptr, i32, i64, i64, ptr, ...) @H5E_printf_stack(ptr noundef nonnull @.str.3, ptr noundef nonnull @__func__.H5O__cache_chk_verify_chksum, i32 noundef 640, i64 noundef %21, i64 noundef %22, ptr noundef nonnull @.str.16) #9
  br label %27

24:                                               ; preds = %17
  %25 = load i32, ptr %4, align 4, !tbaa !35
  %26 = load i32, ptr %5, align 4, !tbaa !35
  %.not10 = icmp eq i32 %25, %26
  %spec.select = zext i1 %.not10 to i32
  br label %27

27:                                               ; preds = %24, %20
  %.1 = phi i32 [ -1, %20 ], [ %spec.select, %24 ]
  call void @llvm.lifetime.end.p0(i64 4, ptr nonnull %5) #9
  call void @llvm.lifetime.end.p0(i64 4, ptr nonnull %4) #9
  br label %28

28:                                               ; preds = %27, %3, %12
  %.09 = phi i32 [ %.1, %27 ], [ 1, %12 ], [ 1, %3 ]
  ret i32 %.09
}